target datalayout = "e-m:e-p270:32:32-p271:32:32-p272:64:64-i64:64-i128:128-f80:128-n8:16:32:64-S128"
target triple = "x86_64-pc-linux-gnu"

%struct._GLFWlibrary = type { i32, %struct.GLFWallocator, %struct._GLFWplatform, %struct.anon, ptr, ptr, ptr, ptr, i32, i32, [16 x %struct._GLFWjoystick], ptr, i32, %struct._GLFWtls, %struct._GLFWtls, %struct._GLFWmutex, %struct.anon.8, %struct.anon.9, %struct.anon.10, %struct.anon.11, %struct.anon.12, %struct._GLFWlibraryWayland, %struct._GLFWlibraryX11, %struct._GLFWlibraryNull, %struct._GLFWlibraryGLX, %struct._GLFWlibraryLinux }
%struct.GLFWallocator = type { ptr, ptr, ptr, ptr }
%struct._GLFWplatform = type { i32, ptr, ptr, ptr, ptr, ptr, ptr, ptr, ptr, ptr, ptr, ptr, ptr, ptr, ptr, ptr, ptr, ptr, ptr, ptr, ptr, ptr, ptr, ptr, ptr, ptr, ptr, ptr, ptr, ptr, ptr, ptr, ptr, ptr, ptr, ptr, ptr, ptr, ptr, ptr, ptr, ptr, ptr, ptr, ptr, ptr, ptr, ptr, ptr, ptr, ptr, ptr, ptr, ptr, ptr, ptr, ptr, ptr, ptr, ptr, ptr, ptr, ptr, ptr, ptr, ptr, ptr, ptr, ptr, ptr, ptr, ptr }
%struct.anon = type { %struct._GLFWinitconfig, %struct._GLFWfbconfig, %struct._GLFWwndconfig, %struct._GLFWctxconfig, i32 }
%struct._GLFWinitconfig = type { i32, i32, i32, ptr, %struct.anon.0, %struct.anon.1, %struct.anon.2 }
%struct.anon.0 = type { i32, i32 }
%struct.anon.1 = type { i32 }
%struct.anon.2 = type { i32 }
%struct._GLFWfbconfig = type { i32, i32, i32, i32, i32, i32, i32, i32, i32, i32, i32, i32, i32, i32, i32, i32, i64 }
%struct._GLFWwndconfig = type { i32, i32, i32, i32, ptr, i32, i32, i32, i32, i32, i32, i32, i32, i32, i32, i32, i32, %struct.anon.3, %struct.anon.4, %struct.anon.5, %struct.anon.6 }
%struct.anon.3 = type { [256 x i8] }
%struct.anon.4 = type { [256 x i8], [256 x i8] }
%struct.anon.5 = type { i32, i32 }
%struct.anon.6 = type { [256 x i8] }
%struct._GLFWctxconfig = type { i32, i32, i32, i32, i32, i32, i32, i32, i32, i32, ptr, %struct.anon.7 }
%struct.anon.7 = type { i32 }
%struct._GLFWjoystick = type { i32, i32, ptr, i32, ptr, i32, ptr, i32, [128 x i8], ptr, [33 x i8], ptr, %struct._GLFWjoystickLinux }
%struct._GLFWjoystickLinux = type { i32, [4096 x i8], [512 x i32], [64 x i32], [64 x %struct.input_absinfo], [4 x [2 x i32]] }
%struct.input_absinfo = type { i32, i32, i32, i32, i32, i32 }
%struct._GLFWtls = type { %struct._GLFWtlsPOSIX }
%struct._GLFWtlsPOSIX = type { i32, i32 }
%struct._GLFWmutex = type { %struct._GLFWmutexPOSIX }
%struct._GLFWmutexPOSIX = type { i32, %union.pthread_mutex_t }
%union.pthread_mutex_t = type { %struct.__pthread_mutex_s }
%struct.__pthread_mutex_s = type { i32, i32, i32, i32, i32, i16, i16, %struct.__pthread_internal_list }
%struct.__pthread_internal_list = type { ptr, ptr }
%struct.anon.8 = type { i64, %struct._GLFWtimerPOSIX }
%struct._GLFWtimerPOSIX = type { i32, i64 }
%struct.anon.9 = type { i32, ptr, i32, i32, i32, i32, i32, i32, i32, i32, i32, i32, i32, i32, i32, i32, i32, i32, i32, i32, ptr, ptr, ptr, ptr, ptr, ptr, ptr, ptr, ptr, ptr, ptr, ptr, ptr, ptr, ptr, ptr, ptr, ptr, ptr }
%struct.anon.10 = type { ptr, ptr, ptr, ptr, ptr, ptr, ptr, ptr }
%struct.anon.11 = type { i32, ptr, [2 x ptr], ptr, i32, i32, i32, i32, i32, i32, i32 }
%struct.anon.12 = type { ptr, ptr }
%struct._GLFWlibraryWayland = type { ptr, ptr, ptr, ptr, ptr, ptr, ptr, ptr, ptr, ptr, ptr, ptr, ptr, ptr, ptr, ptr, ptr, ptr, ptr, i32, ptr, ptr, ptr, ptr, i32, ptr, ptr, ptr, ptr, ptr, i32, i32, i32, i32, i32, i32, i32, ptr, [256 x i16], [349 x i16], [349 x [5 x i8]], %struct.anon.13, ptr, ptr, %struct.anon.14, %struct.anon.15, %struct.anon.16, %struct.anon.17 }
%struct.anon.13 = type { ptr, ptr, ptr, ptr, ptr, i32, i32, i32, i32, i32, i32, i32, ptr, ptr, ptr, ptr, ptr, ptr, ptr, ptr, ptr, ptr, ptr, ptr, ptr, ptr, ptr, ptr, ptr, ptr, ptr, ptr }
%struct.anon.14 = type { ptr, ptr, ptr, ptr, ptr, ptr, ptr, ptr, ptr, ptr, ptr, ptr, ptr, ptr, ptr, ptr, ptr, ptr, ptr, ptr }
%struct.anon.15 = type { ptr, ptr, ptr, ptr, ptr }
%struct.anon.16 = type { ptr, ptr, ptr, ptr }
%struct.anon.17 = type { ptr, ptr, ptr, i32, ptr, ptr, ptr, ptr, ptr, ptr, ptr, ptr, ptr, ptr, ptr, ptr, ptr, ptr, ptr, ptr, ptr, ptr, ptr, ptr, ptr, ptr, ptr, ptr, ptr }
%struct._GLFWlibraryX11 = type { ptr, i32, i64, float, float, i64, i64, i32, ptr, ptr, i32, ptr, ptr, [349 x [5 x i8]], [256 x i16], [349 x i16], double, double, ptr, [2 x i32], i64, i64, i64, i64, i64, i64, i64, i64, i64, i64, i64, i64, i64, i64, i64, i64, i64, i64, i64, i64, i64, i64, i64, i64, i64, i64, i64, i64, i64, i64, i64, i64, i64, i64, i64, i64, i64, i64, i64, i64, i64, i64, i64, i64, i64, i64, i64, i64, i64, i64, %struct.anon.18, %struct.anon.19, %struct.anon.20, %struct.anon.21, %struct.anon.22, %struct.anon.23, %struct.anon.24, %struct.anon.25, %struct.anon.26, %struct.anon.27, %struct.anon.28, %struct.anon.29, %struct.anon.30 }
%struct.anon.18 = type { ptr, i32, ptr, ptr, ptr, ptr, ptr, ptr, ptr, ptr, ptr, ptr, ptr, ptr, ptr, ptr, ptr, ptr, ptr, ptr, ptr, ptr, ptr, ptr, ptr, ptr, ptr, ptr, ptr, ptr, ptr, ptr, ptr, ptr, ptr, ptr, ptr, ptr, ptr, ptr, ptr, ptr, ptr, ptr, ptr, ptr, ptr, ptr, ptr, ptr, ptr, ptr, ptr, ptr, ptr, ptr, ptr, ptr, ptr, ptr, ptr, ptr, ptr, ptr, ptr, ptr, ptr, ptr, ptr, ptr, ptr, ptr, ptr, ptr, ptr, ptr, ptr, ptr, ptr, ptr, ptr, ptr, ptr, ptr, ptr, ptr, ptr, ptr }
%struct.anon.19 = type { ptr, ptr, ptr, ptr }
%struct.anon.20 = type { i32, ptr, i32, i32, i32, i32, i32, i32, ptr, ptr, ptr, ptr, ptr, ptr, ptr, ptr, ptr, ptr, ptr, ptr, ptr, ptr, ptr, ptr, ptr }
%struct.anon.21 = type { i32, i32, i32, i32, i32, i32, i32, i32, ptr, ptr, ptr, ptr, ptr, ptr, ptr, ptr, ptr }
%struct.anon.22 = type { i32, i32, i32, i32, i32 }
%struct.anon.23 = type { i32, i64, i64 }
%struct.anon.24 = type { ptr, ptr, ptr, ptr, ptr, ptr, ptr }
%struct.anon.25 = type { i32, ptr, i32, i32, ptr, ptr, ptr }
%struct.anon.26 = type { ptr, ptr }
%struct.anon.27 = type { i32, ptr, i32, i32, ptr, ptr, ptr, ptr }
%struct.anon.28 = type { i32, ptr, i32, i32, i32, i32, i32, ptr, ptr }
%struct.anon.29 = type { i32, ptr, i32, i32, i32, i32, ptr, ptr, ptr }
%struct.anon.30 = type { i32, ptr, i32, i32, i32, i32, ptr, ptr, ptr, ptr }
%struct._GLFWlibraryNull = type { i32, i32, ptr, ptr, [121 x i16], [349 x i8] }
%struct._GLFWlibraryGLX = type { i32, i32, i32, i32, ptr, ptr, ptr, ptr, ptr, ptr, ptr, ptr, ptr, ptr, ptr, ptr, ptr, ptr, ptr, ptr, ptr, ptr, ptr, ptr, i32, i32, i32, i32, i32, i32, i32, i32, i32, i32, i32, i32 }
%struct._GLFWlibraryLinux = type { i32, i32, %struct.re_pattern_buffer, i32, i32 }
%struct.re_pattern_buffer = type { ptr, i64, i64, i64, ptr, ptr, i64, i8 }
%struct._GLFWcursor = type { ptr, %struct._GLFWcursorWayland, %struct._GLFWcursorX11 }
%struct._GLFWcursorWayland = type { ptr, ptr, ptr, i32, i32, i32, i32, i32 }
%struct._GLFWcursorX11 = type { i64 }

@_glfw = external global %struct._GLFWlibrary, align 8
@.str.8 = private unnamed_addr constant [8 x i8] c"default\00", align 1
@.str.9 = private unnamed_addr constant [5 x i8] c"text\00", align 1
@.str.10 = private unnamed_addr constant [10 x i8] c"crosshair\00", align 1
@.str.11 = private unnamed_addr constant [8 x i8] c"pointer\00", align 1
@.str.12 = private unnamed_addr constant [10 x i8] c"ew-resize\00", align 1
@.str.13 = private unnamed_addr constant [10 x i8] c"ns-resize\00", align 1
@.str.14 = private unnamed_addr constant [12 x i8] c"nwse-resize\00", align 1
@.str.15 = private unnamed_addr constant [12 x i8] c"nesw-resize\00", align 1
@.str.16 = private unnamed_addr constant [11 x i8] c"all-scroll\00", align 1
@.str.17 = private unnamed_addr constant [12 x i8] c"not-allowed\00", align 1
@.str.18 = private unnamed_addr constant [39 x i8] c"X11: Standard cursor shape unavailable\00", align 1
@.str.19 = private unnamed_addr constant [38 x i8] c"X11: Failed to create standard cursor\00", align 1

; Function Attrs: nounwind uwtable
define hidden i32 @_glfwCreateStandardCursorX11(ptr noundef %0, i32 noundef %1) #0 {
  %3 = alloca i32, align 4
  %4 = alloca ptr, align 8
  %5 = alloca i32, align 4
  %6 = alloca ptr, align 8
  %7 = alloca i32, align 4
  %8 = alloca ptr, align 8
  %9 = alloca ptr, align 8
  %10 = alloca i32, align 4
  %11 = alloca i32, align 4
  store ptr %0, ptr %4, align 8, !tbaa !442
  store i32 %1, ptr %5, align 4, !tbaa !194
  %12 = load ptr, ptr getelementptr inbounds nuw (%struct._GLFWlibraryX11, ptr getelementptr inbounds nuw (%struct._GLFWlibrary, ptr @_glfw, i32 0, i32 22), i32 0, i32 76), align 8, !tbaa !443
  %13 = icmp ne ptr %12, null
  br i1 %13, label %14, label %55

14:                                               ; preds = %2
  call void @llvm.lifetime.start.p0(i64 8, ptr %6) #8
  %15 = load ptr, ptr getelementptr inbounds nuw (%struct.anon.24, ptr getelementptr inbounds nuw (%struct._GLFWlibraryX11, ptr getelementptr inbounds nuw (%struct._GLFWlibrary, ptr @_glfw, i32 0, i32 22), i32 0, i32 76), i32 0, i32 4), align 8, !tbaa !444
  %16 = load ptr, ptr getelementptr inbounds nuw (%struct._GLFWlibrary, ptr @_glfw, i32 0, i32 22), align 8, !tbaa !96
  %17 = call ptr %15(ptr noundef %16)
  store ptr %17, ptr %6, align 8, !tbaa !113
  %18 = load ptr, ptr %6, align 8, !tbaa !113
  %19 = icmp ne ptr %18, null
  br i1 %19, label %20, label %54

20:                                               ; preds = %14
  call void @llvm.lifetime.start.p0(i64 4, ptr %7) #8
  %21 = load ptr, ptr getelementptr inbounds nuw (%struct.anon.24, ptr getelementptr inbounds nuw (%struct._GLFWlibraryX11, ptr getelementptr inbounds nuw (%struct._GLFWlibrary, ptr @_glfw, i32 0, i32 22), i32 0, i32 76), i32 0, i32 5), align 8, !tbaa !445
  %22 = load ptr, ptr getelementptr inbounds nuw (%struct._GLFWlibrary, ptr @_glfw, i32 0, i32 22), align 8, !tbaa !96
  %23 = call i32 %21(ptr noundef %22)
  store i32 %23, ptr %7, align 4, !tbaa !194
  call void @llvm.lifetime.start.p0(i64 8, ptr %8) #8
  store ptr null, ptr %8, align 8, !tbaa !113
  %24 = load i32, ptr %5, align 4, !tbaa !194
  switch i32 %24, label %35 [
    i32 221185, label %25
    i32 221186, label %26
    i32 221187, label %27
    i32 221188, label %28
    i32 221189, label %29
    i32 221190, label %30
    i32 221191, label %31
    i32 221192, label %32
    i32 221193, label %33
    i32 221194, label %34
  ]

25:                                               ; preds = %20
  store ptr @.str.8, ptr %8, align 8, !tbaa !113
  br label %35

26:                                               ; preds = %20
  store ptr @.str.9, ptr %8, align 8, !tbaa !113
  br label %35

27:                                               ; preds = %20
  store ptr @.str.10, ptr %8, align 8, !tbaa !113
  br label %35

28:                                               ; preds = %20
  store ptr @.str.11, ptr %8, align 8, !tbaa !113
  br label %35

29:                                               ; preds = %20
  store ptr @.str.12, ptr %8, align 8, !tbaa !113
  br label %35

30:                                               ; preds = %20
  store ptr @.str.13, ptr %8, align 8, !tbaa !113
  br label %35

31:                                               ; preds = %20
  store ptr @.str.14, ptr %8, align 8, !tbaa !113
  br label %35

32:                                               ; preds = %20
  store ptr @.str.15, ptr %8, align 8, !tbaa !113
  br label %35

33:                                               ; preds = %20
  store ptr @.str.16, ptr %8, align 8, !tbaa !113
  br label %35

34:                                               ; preds = %20
  store ptr @.str.17, ptr %8, align 8, !tbaa !113
  br label %35

35:                                               ; preds = %20, %34, %33, %32, %31, %30, %29, %28, %27, %26, %25
  call void @llvm.lifetime.start.p0(i64 8, ptr %9) #8
  %36 = load ptr, ptr getelementptr inbounds nuw (%struct.anon.24, ptr getelementptr inbounds nuw (%struct._GLFWlibraryX11, ptr getelementptr inbounds nuw (%struct._GLFWlibrary, ptr @_glfw, i32 0, i32 22), i32 0, i32 76), i32 0, i32 6), align 8, !tbaa !446
  %37 = load ptr, ptr %8, align 8, !tbaa !113
  %38 = load ptr, ptr %6, align 8, !tbaa !113
  %39 = load i32, ptr %7, align 4, !tbaa !194
  %40 = call ptr %36(ptr noundef %37, ptr noundef %38, i32 noundef %39)
  store ptr %40, ptr %9, align 8, !tbaa !447
  %41 = load ptr, ptr %9, align 8, !tbaa !447
  %42 = icmp ne ptr %41, null
  br i1 %42, label %43, label %53

43:                                               ; preds = %35
  %44 = load ptr, ptr getelementptr inbounds nuw (%struct.anon.24, ptr getelementptr inbounds nuw (%struct._GLFWlibraryX11, ptr getelementptr inbounds nuw (%struct._GLFWlibrary, ptr @_glfw, i32 0, i32 22), i32 0, i32 76), i32 0, i32 3), align 8, !tbaa !449
  %45 = load ptr, ptr getelementptr inbounds nuw (%struct._GLFWlibrary, ptr @_glfw, i32 0, i32 22), align 8, !tbaa !96
  %46 = load ptr, ptr %9, align 8, !tbaa !447
  %47 = call i64 %44(ptr noundef %45, ptr noundef %46)
  %48 = load ptr, ptr %4, align 8, !tbaa !442
  %49 = getelementptr inbounds nuw %struct._GLFWcursor, ptr %48, i32 0, i32 2
  %50 = getelementptr inbounds nuw %struct._GLFWcursorX11, ptr %49, i32 0, i32 0
  store i64 %47, ptr %50, align 8, !tbaa !433
  %51 = load ptr, ptr getelementptr inbounds nuw (%struct.anon.24, ptr getelementptr inbounds nuw (%struct._GLFWlibraryX11, ptr getelementptr inbounds nuw (%struct._GLFWlibrary, ptr @_glfw, i32 0, i32 22), i32 0, i32 76), i32 0, i32 2), align 8, !tbaa !450
  %52 = load ptr, ptr %9, align 8, !tbaa !447
  call void %51(ptr noundef %52)
  br label %53

53:                                               ; preds = %43, %35
  call void @llvm.lifetime.end.p0(i64 8, ptr %9) #8
  call void @llvm.lifetime.end.p0(i64 8, ptr %8) #8
  call void @llvm.lifetime.end.p0(i64 4, ptr %7) #8
  br label %54

54:                                               ; preds = %53, %14
  call void @llvm.lifetime.end.p0(i64 8, ptr %6) #8
  br label %55

55:                                               ; preds = %54, %2
  %56 = load ptr, ptr %4, align 8, !tbaa !442
  %57 = getelementptr inbounds nuw %struct._GLFWcursor, ptr %56, i32 0, i32 2
  %58 = getelementptr inbounds nuw %struct._GLFWcursorX11, ptr %57, i32 0, i32 0
  %59 = load i64, ptr %58, align 8, !tbaa !433
  %60 = icmp ne i64 %59, 0
  br i1 %60, label %89, label %61

61:                                               ; preds = %55
  call void @llvm.lifetime.start.p0(i64 4, ptr %10) #8
  store i32 0, ptr %10, align 4, !tbaa !194
  %62 = load i32, ptr %5, align 4, !tbaa !194
  switch i32 %62, label %70 [
    i32 221185, label %63
    i32 221186, label %64
    i32 221187, label %65
    i32 221188, label %66
    i32 221189, label %67
    i32 221190, label %68
    i32 221193, label %69
  ]

63:                                               ; preds = %61
  store i32 68, ptr %10, align 4, !tbaa !194
  br label %71

64:                                               ; preds = %61
  store i32 152, ptr %10, align 4, !tbaa !194
  br label %71

65:                                               ; preds = %61
  store i32 34, ptr %10, align 4, !tbaa !194
  br label %71

66:                                               ; preds = %61
  store i32 60, ptr %10, align 4, !tbaa !194
  br label %71

67:                                               ; preds = %61
  store i32 108, ptr %10, align 4, !tbaa !194
  br label %71

68:                                               ; preds = %61
  store i32 116, ptr %10, align 4, !tbaa !194
  br label %71

69:                                               ; preds = %61
  store i32 52, ptr %10, align 4, !tbaa !194
  br label %71

70:                                               ; preds = %61
  call void (i32, ptr, ...) @_glfwInputError(i32 noundef 65547, ptr noundef @.str.18)
  store i32 0, ptr %3, align 4
  store i32 1, ptr %11, align 4
  br label %86

71:                                               ; preds = %69, %68, %67, %66, %65, %64, %63
  %72 = load ptr, ptr getelementptr inbounds nuw (%struct.anon.18, ptr getelementptr inbounds nuw (%struct._GLFWlibraryX11, ptr getelementptr inbounds nuw (%struct._GLFWlibrary, ptr @_glfw, i32 0, i32 22), i32 0, i32 70), i32 0, i32 13), align 8, !tbaa !451
  %73 = load ptr, ptr getelementptr inbounds nuw (%struct._GLFWlibrary, ptr @_glfw, i32 0, i32 22), align 8, !tbaa !96
  %74 = load i32, ptr %10, align 4, !tbaa !194
  %75 = call i64 %72(ptr noundef %73, i32 noundef %74)
  %76 = load ptr, ptr %4, align 8, !tbaa !442
  %77 = getelementptr inbounds nuw %struct._GLFWcursor, ptr %76, i32 0, i32 2
  %78 = getelementptr inbounds nuw %struct._GLFWcursorX11, ptr %77, i32 0, i32 0
  store i64 %75, ptr %78, align 8, !tbaa !433
  %79 = load ptr, ptr %4, align 8, !tbaa !442
  %80 = getelementptr inbounds nuw %struct._GLFWcursor, ptr %79, i32 0, i32 2
  %81 = getelementptr inbounds nuw %struct._GLFWcursorX11, ptr %80, i32 0, i32 0
  %82 = load i64, ptr %81, align 8, !tbaa !433
  %83 = icmp ne i64 %82, 0
  br i1 %83, label %85, label %84

84:                                               ; preds = %71
  call void (i32, ptr, ...) @_glfwInputError(i32 noundef 65544, ptr noundef @.str.19)
  store i32 0, ptr %3, align 4
  store i32 1, ptr %11, align 4
  br label %86

85:                                               ; preds = %71
  store i32 0, ptr %11, align 4
  br label %86

86:                                               ; preds = %85, %84, %70
  call void @llvm.lifetime.end.p0(i64 4, ptr %10) #8
  %87 = load i32, ptr %11, align 4
  switch i32 %87, label %92 [
    i32 0, label %88
    i32 1, label %90
  ]

88:                                               ; preds = %86
  br label %89

89:                                               ; preds = %88, %55
  store i32 1, ptr %3, align 4
  br label %90

90:                                               ; preds = %89, %86
  %91 = load i32, ptr %3, align 4
  ret i32 %91

92:                                               ; preds = %86
  unreachable
}