; Function Attrs: nounwind uwtable
define hidden range(i32 0, 2) i32 @_glfwCreateStandardCursorX11(ptr noundef captures(none) %0, i32 noundef %1) local_unnamed_addr #0 {
  %3 = load ptr, ptr getelementptr inbounds nuw (i8, ptr @_glfw, i64 142392), align 8, !tbaa !418
  %.not = icmp eq ptr %3, null
  br i1 %.not, label %23, label %4

4:                                                ; preds = %2
  %5 = load ptr, ptr getelementptr inbounds nuw (i8, ptr @_glfw, i64 142424), align 8, !tbaa !419
  %6 = load ptr, ptr getelementptr inbounds nuw (i8, ptr @_glfw, i64 137840), align 8, !tbaa !93
  %7 = tail call ptr %5(ptr noundef %6) #17
  %.not20 = icmp eq ptr %7, null
  br i1 %.not20, label %23, label %8

8:                                                ; preds = %4
  %9 = load ptr, ptr getelementptr inbounds nuw (i8, ptr @_glfw, i64 142432), align 8, !tbaa !420
  %10 = load ptr, ptr getelementptr inbounds nuw (i8, ptr @_glfw, i64 137840), align 8, !tbaa !93
  %11 = tail call i32 %9(ptr noundef %10) #17
  %switch.tableidx = add i32 %1, -221185
  %12 = icmp ult i32 %switch.tableidx, 10
  br i1 %12, label %switch.lookup, label %14

switch.lookup:                                    ; preds = %8
  %13 = zext nneg i32 %switch.tableidx to i64
  %switch.gep = getelementptr inbounds nuw [10 x ptr], ptr @switch.table._glfwCreateStandardCursorX11, i64 0, i64 %13
  %switch.load = load ptr, ptr %switch.gep, align 8
  br label %14

14:                                               ; preds = %switch.lookup, %8
  %.017 = phi ptr [ null, %8 ], [ %switch.load, %switch.lookup ]
  %15 = load ptr, ptr getelementptr inbounds nuw (i8, ptr @_glfw, i64 142440), align 8, !tbaa !421
  %16 = tail call ptr %15(ptr noundef %.017, ptr noundef nonnull %7, i32 noundef %11) #17
  %.not21 = icmp eq ptr %16, null
  br i1 %.not21, label %23, label %17

17:                                               ; preds = %14
  %18 = load ptr, ptr getelementptr inbounds nuw (i8, ptr @_glfw, i64 142416), align 8, !tbaa !422
  %19 = load ptr, ptr getelementptr inbounds nuw (i8, ptr @_glfw, i64 137840), align 8, !tbaa !93
  %20 = tail call i64 %18(ptr noundef %19, ptr noundef nonnull %16) #17
  %21 = getelementptr inbounds nuw i8, ptr %0, i64 56
  store i64 %20, ptr %21, align 8, !tbaa !315
  %22 = load ptr, ptr getelementptr inbounds nuw (i8, ptr @_glfw, i64 142408), align 8, !tbaa !423
  tail call void %22(ptr noundef nonnull %16) #17
  br label %23

23:                                               ; preds = %4, %17, %14, %2
  %24 = getelementptr inbounds nuw i8, ptr %0, i64 56
  %25 = load i64, ptr %24, align 8, !tbaa !315
  %.not22 = icmp eq i64 %25, 0
  br i1 %.not22, label %26, label %.thread

26:                                               ; preds = %23
  %switch.tableidx27 = add i32 %1, -221185
  %27 = icmp ult i32 %switch.tableidx27, 9
  br i1 %27, label %switch.hole_check, label %28

28:                                               ; preds = %switch.hole_check, %26
  tail call void (i32, ptr, ...) @_glfwInputError(i32 noundef 65547, ptr noundef nonnull @.str.18) #17
  br label %.thread

switch.hole_check:                                ; preds = %26
  %switch.maskindex = trunc nuw i32 %switch.tableidx27 to i16
  %switch.shifted = lshr i16 319, %switch.maskindex
  %switch.lobit = trunc i16 %switch.shifted to i1
  br i1 %switch.lobit, label %switch.lookup28, label %28

switch.lookup28:                                  ; preds = %switch.hole_check
  %29 = zext nneg i32 %switch.tableidx27 to i64
  %switch.gep29 = getelementptr inbounds nuw [9 x i32], ptr @switch.table._glfwCreateStandardCursorX11.6, i64 0, i64 %29
  %switch.load30 = load i32, ptr %switch.gep29, align 4
  %30 = load ptr, ptr getelementptr inbounds nuw (i8, ptr @_glfw, i64 141432), align 8, !tbaa !424
  %31 = load ptr, ptr getelementptr inbounds nuw (i8, ptr @_glfw, i64 137840), align 8, !tbaa !93
  %32 = tail call i64 %30(ptr noundef %31, i32 noundef %switch.load30) #17
  store i64 %32, ptr %24, align 8, !tbaa !315
  %.not23 = icmp eq i64 %32, 0
  br i1 %.not23, label %33, label %.thread

33:                                               ; preds = %switch.lookup28
  tail call void (i32, ptr, ...) @_glfwInputError(i32 noundef 65544, ptr noundef nonnull @.str.19) #17
  br label %.thread

.thread:                                          ; preds = %33, %28, %23, %switch.lookup28
  %.1 = phi i32 [ 1, %switch.lookup28 ], [ 1, %23 ], [ 0, %28 ], [ 0, %33 ]
  ret i32 %.1
}